; Function Attrs: nounwind uwtable
define ptr @l___private_Lean_Meta_Tactic_Cleanup_0__Lean_Meta_cleanupCore(ptr noundef %0, ptr noundef %1, i8 noundef zeroext %2, ptr noundef %3, ptr noundef %4, ptr noundef %5, ptr noundef %6, ptr noundef %7) local_unnamed_addr #0 {
  %9 = load ptr, ptr @l___private_Lean_Meta_Tactic_Cleanup_0__Lean_Meta_cleanupCore___closed__2, align 8, !tbaa !9
  %10 = ptrtoint ptr %0 to i64
  %11 = and i64 %10, 1
  %.not = icmp eq i64 %11, 0
  br i1 %.not, label %12, label %lean_inc.exit

12:                                               ; preds = %8
  %.val.i = load i32, ptr %0, align 4, !tbaa !4
  %13 = icmp sgt i32 %.val.i, 0
  br i1 %13, label %14, label %16, !prof !11

14:                                               ; preds = %12
  %15 = add nuw i32 %.val.i, 1
  store i32 %15, ptr %0, align 4, !tbaa !4
  br label %lean_inc.exit

16:                                               ; preds = %12
  %.not.i = icmp eq i32 %.val.i, 0
  br i1 %.not.i, label %lean_inc.exit, label %17

17:                                               ; preds = %16
  tail call void @lean_inc_ref_cold(ptr noundef nonnull %0) #5
  br label %lean_inc.exit

lean_inc.exit:                                    ; preds = %17, %16, %14, %8
  tail call void @lean_inc_heartbeat() #5
  %18 = tail call noalias ptr @mi_malloc_small(i64 noundef 56) #5
  %19 = icmp eq ptr %18, null
  br i1 %19, label %20, label %lean_alloc_closure.exit

20:                                               ; preds = %lean_inc.exit
  tail call void @lean_internal_panic_out_of_memory() #6
  unreachable

lean_alloc_closure.exit:                          ; preds = %lean_inc.exit
  %21 = zext i8 %2 to i64
  %22 = shl nuw nsw i64 %21, 1
  %23 = or disjoint i64 %22, 1
  %24 = inttoptr i64 %23 to ptr
  %25 = getelementptr inbounds nuw i8, ptr %18, i64 4
  store i32 1, ptr %18, align 4, !tbaa !4
  store i32 -184549320, ptr %25, align 4
  %26 = getelementptr inbounds nuw i8, ptr %18, i64 8
  store ptr @l___private_Lean_Meta_Tactic_Cleanup_0__Lean_Meta_cleanupCore___lambda__1___boxed, ptr %26, align 8, !tbaa !9
  %27 = getelementptr inbounds nuw i8, ptr %18, i64 16
  store i16 9, ptr %27, align 8, !tbaa !15
  %28 = getelementptr inbounds nuw i8, ptr %18, i64 18
  store i16 4, ptr %28, align 2, !tbaa !15
  %29 = getelementptr inbounds nuw i8, ptr %18, i64 24
  store ptr %0, ptr %29, align 8, !tbaa !9
  %30 = getelementptr inbounds nuw i8, ptr %18, i64 32
  store ptr %9, ptr %30, align 8, !tbaa !9
  %31 = getelementptr inbounds nuw i8, ptr %18, i64 40
  store ptr %1, ptr %31, align 8, !tbaa !9
  %32 = getelementptr inbounds nuw i8, ptr %18, i64 48
  store ptr %24, ptr %32, align 8, !tbaa !9
  %33 = tail call ptr @l_Lean_MVarId_withContext___at___private_Lean_Meta_SynthInstance_0__Lean_Meta_synthPendingImp___spec__2___rarg(ptr noundef %0, ptr noundef nonnull %18, ptr noundef %3, ptr noundef %4, ptr noundef %5, ptr noundef %6, ptr noundef %7) #5
  ret ptr %33
}